; Function Attrs: mustprogress nofree norecurse nosync nounwind willreturn memory(read, inaccessiblemem: none) uwtable
define dso_local noundef i32 @_ZNK31btMultiBodyJointLimitConstraint12getIslandIdAEv(ptr noundef nonnull readonly align 8 captures(none) dereferenceable(104) %0) unnamed_addr #5 align 2 {
  %2 = getelementptr inbounds nuw i8, ptr %0, i64 8
  %3 = load ptr, ptr %2, align 8, !tbaa !36
  %.not = icmp eq ptr %3, null
  br i1 %.not, label %.thread, label %4

4:                                                ; preds = %1
  %5 = getelementptr inbounds nuw i8, ptr %0, i64 24
  %6 = load i32, ptr %5, align 8, !tbaa !37
  %7 = icmp slt i32 %6, 0
  br i1 %7, label %8, label %11

8:                                                ; preds = %4
  %9 = getelementptr inbounds nuw i8, ptr %3, i64 8
  %10 = load ptr, ptr %9, align 8, !tbaa !45
  %.not9.not = icmp eq ptr %10, null
  br i1 %.not9.not, label %.thread, label %.thread.sink.split

11:                                               ; preds = %4
  %12 = getelementptr inbounds nuw i8, ptr %3, i64 192
  %13 = load ptr, ptr %12, align 8, !tbaa !4
  %14 = zext nneg i32 %6 to i64
  %15 = getelementptr inbounds nuw %struct.btMultibodyLink, ptr %13, i64 %14, i32 22
  %16 = load ptr, ptr %15, align 8, !tbaa !53
  %.not8 = icmp eq ptr %16, null
  br i1 %.not8, label %.thread, label %.thread.sink.split

.thread.sink.split:                               ; preds = %11, %8
  %.sink12 = phi ptr [ %10, %8 ], [ %16, %11 ]
  %17 = getelementptr inbounds nuw i8, ptr %.sink12, i64 228
  %18 = load i32, ptr %17, align 4, !tbaa !54
  br label %.thread

.thread:                                          ; preds = %.thread.sink.split, %8, %1, %11
  %.1 = phi i32 [ -1, %11 ], [ -1, %1 ], [ -1, %8 ], [ %18, %.thread.sink.split ]
  ret i32 %.1
}